; ModuleID = '29/485.c'
source_filename = "29/485.c"
target datalayout = "e-m:e-p270:32:32-p271:32:32-p272:64:64-i64:64-f80:128-n8:16:32:64-S128"
target triple = "x86_64-pc-linux-gnu"

@.str = private unnamed_addr constant [3 x i8] c"%d\00", align 1
@.str.1 = private unnamed_addr constant [6 x i8] c"%.3f\0A\00", align 1
@.str.2 = private unnamed_addr constant [5 x i8] c"%.3f\00", align 1

; Function Attrs: noinline nounwind uwtable
define dso_local i32 @main() #0 {
  %1 = alloca i32, align 4
  %2 = alloca i32, align 4
  %3 = alloca [100 x i32], align 16
  %4 = alloca [100 x i32], align 16
  %5 = alloca i32, align 4
  %6 = alloca i32, align 4
  %7 = alloca i32, align 4
  %8 = alloca float, align 4
  store i32 0, i32* %1, align 4
  %9 = call i32 (i8*, ...) @__isoc99_scanf(i8* getelementptr inbounds ([3 x i8], [3 x i8]* @.str, i64 0, i64 0), i32* %2)
  %10 = getelementptr inbounds [100 x i32], [100 x i32]* %3, i64 0, i64 0
  store i32 2, i32* %10, align 16
  %11 = getelementptr inbounds [100 x i32], [100 x i32]* %3, i64 0, i64 1
  store i32 3, i32* %11, align 4
  %12 = getelementptr inbounds [100 x i32], [100 x i32]* %4, i64 0, i64 0
  store i32 1, i32* %12, align 16
  %13 = getelementptr inbounds [100 x i32], [100 x i32]* %4, i64 0, i64 1
  store i32 2, i32* %13, align 4
  store i32 2, i32* %6, align 4
  br label %14

14:                                               ; preds = %46, %0
  %15 = load i32, i32* %6, align 4
  %16 = icmp slt i32 %15, 100
  br i1 %16, label %17, label %49

17:                                               ; preds = %14
  %18 = load i32, i32* %6, align 4
  %19 = sub nsw i32 %18, 2
  %20 = sext i32 %19 to i64
  %21 = getelementptr inbounds [100 x i32], [100 x i32]* %3, i64 0, i64 %20
  %22 = load i32, i32* %21, align 4
  %23 = load i32, i32* %6, align 4
  %24 = sub nsw i32 %23, 1
  %25 = sext i32 %24 to i64
  %26 = getelementptr inbounds [100 x i32], [100 x i32]* %3, i64 0, i64 %25
  %27 = load i32, i32* %26, align 4
  %28 = add nsw i32 %22, %27
  %29 = load i32, i32* %6, align 4
  %30 = sext i32 %29 to i64
  %31 = getelementptr inbounds [100 x i32], [100 x i32]* %3, i64 0, i64 %30
  store i32 %28, i32* %31, align 4
  %32 = load i32, i32* %6, align 4
  %33 = sub nsw i32 %32, 2
  %34 = sext i32 %33 to i64
  %35 = getelementptr inbounds [100 x i32], [100 x i32]* %4, i64 0, i64 %34
  %36 = load i32, i32* %35, align 4
  %37 = load i32, i32* %6, align 4
  %38 = sub nsw i32 %37, 1
  %39 = sext i32 %38 to i64
  %40 = getelementptr inbounds [100 x i32], [100 x i32]* %4, i64 0, i64 %39
  %41 = load i32, i32* %40, align 4
  %42 = add nsw i32 %36, %41
  %43 = load i32, i32* %6, align 4
  %44 = sext i32 %43 to i64
  %45 = getelementptr inbounds [100 x i32], [100 x i32]* %4, i64 0, i64 %44
  store i32 %42, i32* %45, align 4
  br label %46

46:                                               ; preds = %17
  %47 = load i32, i32* %6, align 4
  %48 = add nsw i32 %47, 1
  store i32 %48, i32* %6, align 4
  br label %14

49:                                               ; preds = %14
  store i32 0, i32* %6, align 4
  br label %50

50:                                               ; preds = %85, %49
  %51 = load i32, i32* %6, align 4
  %52 = load i32, i32* %2, align 4
  %53 = sub nsw i32 %52, 1
  %54 = icmp slt i32 %51, %53
  br i1 %54, label %55, label %88

55:                                               ; preds = %50
  %56 = call i32 (i8*, ...) @__isoc99_scanf(i8* getelementptr inbounds ([3 x i8], [3 x i8]* @.str, i64 0, i64 0), i32* %5)
  store float 0.000000e+00, float* %8, align 4
  store i32 0, i32* %7, align 4
  br label %57

57:                                               ; preds = %78, %55
  %58 = load i32, i32* %7, align 4
  %59 = load i32, i32* %5, align 4
  %60 = icmp slt i32 %58, %59
  br i1 %60, label %61, label %81

61:                                               ; preds = %57
  %62 = load i32, i32* %7, align 4
  %63 = sext i32 %62 to i64
  %64 = getelementptr inbounds [100 x i32], [100 x i32]* %3, i64 0, i64 %63
  %65 = load i32, i32* %64, align 4
  %66 = sitofp i32 %65 to double
  %67 = fmul double 1.000000e+00, %66
  %68 = load i32, i32* %7, align 4
  %69 = sext i32 %68 to i64
  %70 = getelementptr inbounds [100 x i32], [100 x i32]* %4, i64 0, i64 %69
  %71 = load i32, i32* %70, align 4
  %72 = sitofp i32 %71 to double
  %73 = fdiv double %67, %72
  %74 = load float, float* %8, align 4
  %75 = fpext float %74 to double
  %76 = fadd double %75, %73
  %77 = fptrunc double %76 to float
  store float %77, float* %8, align 4
  br label %78

78:                                               ; preds = %61
  %79 = load i32, i32* %7, align 4
  %80 = add nsw i32 %79, 1
  store i32 %80, i32* %7, align 4
  br label %57

81:                                               ; preds = %57
  %82 = load float, float* %8, align 4
  %83 = fpext float %82 to double
  %84 = call i32 (i8*, ...) @printf(i8* getelementptr inbounds ([6 x i8], [6 x i8]* @.str.1, i64 0, i64 0), double %83)
  br label %85

85:                                               ; preds = %81
  %86 = load i32, i32* %6, align 4
  %87 = add nsw i32 %86, 1
  store i32 %87, i32* %6, align 4
  br label %50

88:                                               ; preds = %50
  %89 = call i32 (i8*, ...) @__isoc99_scanf(i8* getelementptr inbounds ([3 x i8], [3 x i8]* @.str, i64 0, i64 0), i32* %5)
  store float 0.000000e+00, float* %8, align 4
  store i32 0, i32* %7, align 4
  br label %90

90:                                               ; preds = %111, %88
  %91 = load i32, i32* %7, align 4
  %92 = load i32, i32* %5, align 4
  %93 = icmp slt i32 %91, %92
  br i1 %93, label %94, label %114

94:                                               ; preds = %90
  %95 = load i32, i32* %7, align 4
  %96 = sext i32 %95 to i64
  %97 = getelementptr inbounds [100 x i32], [100 x i32]* %3, i64 0, i64 %96
  %98 = load i32, i32* %97, align 4
  %99 = sitofp i32 %98 to double
  %100 = fmul double 1.000000e+00, %99
  %101 = load i32, i32* %7, align 4
  %102 = sext i32 %101 to i64
  %103 = getelementptr inbounds [100 x i32], [100 x i32]* %4, i64 0, i64 %102
  %104 = load i32, i32* %103, align 4
  %105 = sitofp i32 %104 to double
  %106 = fdiv double %100, %105
  %107 = load float, float* %8, align 4
  %108 = fpext float %107 to double
  %109 = fadd double %108, %106
  %110 = fptrunc double %109 to float
  store float %110, float* %8, align 4
  br label %111

111:                                              ; preds = %94
  %112 = load i32, i32* %7, align 4
  %113 = add nsw i32 %112, 1
  store i32 %113, i32* %7, align 4
  br label %90

114:                                              ; preds = %90
  %115 = load float, float* %8, align 4
  %116 = fpext float %115 to double
  %117 = call i32 (i8*, ...) @printf(i8* getelementptr inbounds ([5 x i8], [5 x i8]* @.str.2, i64 0, i64 0), double %116)
  ret i32 0
}

declare dso_local i32 @__isoc99_scanf(i8*, ...) #1

declare dso_local i32 @printf(i8*, ...) #1


!llvm.module.flags = !{!0}
!llvm.ident = !{!1}

!0 = !{i32 1, !"wchar_size", i32 4}
!1 = !{!"clang version 10.0.0-4ubuntu1 "}
